(dp0
Vkp-console-20
p1
I1
sVmiksbloandbuy-20
p2
I1
sVthefind0008127-20
p3
I1
sVkotakuamzn-20
p4
I10
sVhydfbook0e-20
p5
I2
sVinsta0c-20
p6
I1
sVunderwaterdigital05-20
p7
I1
sVprofeblogse0f-20
p8
I1
sVmac1no-20
p9
I1
sVcoursekit-20
p10
I1
sVyouraccestoth-20
p11
I7
sVvglnk-c53-20
p12
I1
sVthehuffingtop-20
p13
I1
sVnextagusmp0383203-20
p14
I1
sVcnet_mp-2789-20
p15
I1
sVkosonabud-20
p16
I1
sVnisa-20
p17
I2
sVskim0x112297-20
p18
I1
sVchipsi-grmbkstr-20
p19
I2
sVgpu0f-20
p20
I2
sVonsimobicomps-20
p21
I2
sVvigafokithpev-20
p22
I1
sVdealtmp649284-20
p23
I3
sVdealtmp973821-20
p24
I1
sVsquid822242-20
p25
I1
sVpgmp-773-97-20
p26
I1
sVd000001-20
p27
I51
sVV6winIhIEeOJv8ZSIP-VjA0_s1aw3_SYR_0_0
p28
I1
sVl-vXvnlGEeOuQbo0DP_tYA0_iAWu3_aBR_0_0
p29
I1
sVdealtmp650275-20
p30
I1
sVpg-351-86-20
p31
I1
sVweb2list-20
p32
I1
sVamazusnavi-20
p33
I8
sVj-H_XHbWEeOjwvahFGxSkg0_y0bu3_0_0_0
p34
I1
sVnextagusmp0357673-20
p35
I1
sVmobygames
p36
I1
sVpgtvs-463-100-20
p37
I2
sVilovethatsong-20
p38
I1
sVcnet-ce-20
p39
I3
sVcnet-vg-20
p40
I1
sVjWl1eInAEeO0qm7nl0TCFQ0_Efnw3_AbR_0_0
p41
I1
sVnextagusmp0395403-20
p42
I1
sVcutinkor-20
p43
I1
sVdealtmp419211-20
p44
I2
sVdealsofamer05-20
p45
I4
sVpgmptvs-700-17-20
p46
I1
sVplays0b-20
p47
I2
sVabs-bookdetailsapi-20
p48
I4
sVtattuu-20
p49
I1
sVgMw1UIPJEeOm-BZ4I5Z1xw0_MN5w3_gSR_0_0
p50
I1
sV0WlbnoVHEeOPvX6F092uNw0_2r0w3_wQR_0_0
p51
I1
sVnextagusmp0425773-20
p52
I1
sVandroidcentral00-20
p53
I1
sVdancarlincom-20
p54
I1
sVcomfortersbed-20
p55
I1
sVpg-526-01-20
p56
I1
sVeflyus-20
p57
I1
sVpgmp-1597-97-20
p58
I1
sVyourdatacen-20
p59
I1
sVefavormart-20
p60
I1
sVGj_SVnxYEeOp6pIC9oanzA0_ogCv3_IIR_0_0
p61
I1
sVduiwath-20
p62
I5
sVgettextbooks-20
p63
I1
sV931156-20
p64
I3
sVpcm_contextual-20
p65
I2
sVpolyvore006-20
p66
I2
sVbpnewsletter-20
p67
I1
sVclickermedia-20
p68
I2
sVvglnk-c1639-20
p69
I1
sVwjrS1IaVEeOIEwpiylmiyAigO7_eoOw3_0_0_0
p70
I1
sVthfadi-20
p71
I1
sVdisplayrec-20
p72
I6
sVraychul-20
p73
I4
sVinkp-20
p74
I2
sVpcm_rounduptable-20
p75
I2
sVdangfoodwebs-20
p76
I1
sVtrustvault-20K
p77
I1
sVgoods015-20
p78
I1
sVWgjd3IhrEeOsugLUNUOvDA0_sgSw3_sWR_0_0
p79
I1
sVsitmi-20
p80
I3
sVvglnk-c65-20
p81
I1
sVbf-dt-home-20
p82
I1
sVcdk044-20
p83
I1
sVdealtmp649307-20
p84
I3
sVpgmp-1597-100-20
p85
I2
sVpg-286-95-20
p86
I1
sVpcm_chartbuilder-20
p87
I1
sVsamuelwalkern-20
p88
I1
sVdealtmp650200-20
p89
I1
sVdealt529065-20
p90
I1
sViwala-20
p91
I1
sVSagYvIU9EeOlKM66uOKJ7Q0_E8Hw3_gUR_0_0
p92
I1
sVmoviepooper
p93
I1
sVviglink121868-20
p94
I1
sVpg-1582-99-20
p95
I1
sVSS1h6HewEeOxqUI0s_I9FgjyK2_iAWu3_aBR_0_0
p96
I1
sVBIwv4IUiEeOnL6LST36xpQ0_yFCw3_0_0_0
p97
I1
sVpgmp-928-100-20
p98
I1
sVworldcat-20
p99
I3
sV3d1080pledhdtv-20
p100
I1
sVthegospcoal-20
p101
I1
sVblurayforum-20
p102
I1
sVdealt3903-20
p103
I2
sVtv-fanatic-20
p104
I9
sVnextagus0044039-20
p105
I1
sVpgtvs-1502-100-20
p106
I1
sVoutdoocom-20
p107
I1
sVhh-light-lean-20
p108
I1
sVdealt819147-20
p109
I1
sVkBmayokyEeOf_IbP7cOiOw0_Cakw3_aaR_0_0
p110
I1
sVcheapassgam08-20
p111
I3
sVtechbargainszd-20
p112
I22
sVbuychecom01-20
p113
I1
sVpcm_slideshow-20
p114
I1
sVJfG-LoImEeOSqtZjVhxZEg0_Gxtv3_4QR_0_0
p115
I1
sViphandipaga00-20
p116
I4
sVluxutimetravm-20
p117
I3
sVsnapsort-769-20
p118
I1
sVwb9jwh-20
p119
I1
sVcheapbettblog-20
p120
I1
sVgmglinksmart-20
p121
I1
sVlosyouweibesr-20
p122
I2
sVteresamedeirauth
p123
I1
sVRTc-SofPEeOSyg6qNpMjlg0_UHZw3_GYR_0_0
p124
I1
sVvglnk-c1001-20
p125
I1
sVthefind0111305-20
p126
I1
sV3917-20
p127
I6
sVthechemicalfo-20
p128
I1
sVpgmptvs-373-86-20
p129
I1
sVFqJPuom_EeOkeobP7cOiOw0_0qnw3_EbR_0_0
p130
I1
sVr7NuQoOcEeOvv7okrvv5MA0_MI.v3_0_0_0
p131
I1
sVskim0x79076-20
p132
I1
sVwellwishersdi-20tag=wellwishersdi-20
p133
I1
sVnextagusmp0388257-20
p134
I1
sVbulletpexecut-20
p135
I1
sVLeSFbonMEeOXhh6tB_wLuw0_Efnw3_AbR_0_0
p136
I1
sVsquid1225875-20
p137
I1
sVdealtmp972815-20
p138
I1
sVpgtvs-513-37-20
p139
I1
sVdealt627605-20
p140
I1
sVnatheanewgeth-20
p141
I1
sVbesthirev-20
p142
I1
sVskim0x28666-20
p143
I1
sVhip2bfit-20
p144
I1
sVKkChyn0hEeOtyEIMSvjoXw0_YREv3_0_0_0
p145
I1
sVyouandshoe-20
p146
I1
sVhydrusmsnabk-20
p147
I1
sVsmall0c-20
p148
I1
sVehotelbase-20
p149
I1
sV_UYJEHogEeOOVUI0s_I9Fg0_2Y0v3_0_0_0
p150
I1
sVdealtmp972890-20
p151
I1
sVdislag-20
p152
I1
sVnextagus0038821-20
p153
I1
sVthemovielive-20
p154
I1
sVfireworksarca-20
p155
I1
sVmh0b-20
p156
I5
sVpgmp-372-95-20
p157
I1
sVpg-1583-100-20
p158
I1
sVfdare_fb-20
p159
I3
sVpXCOaonmEeOlrkYgESSkWgY0g3_Urpw3_ebR_0_0
p160
I1
sVdealtmp420029-20
p161
I1
sVpgmp-717-95-20
p162
I1
sVqtwl-20
p163
I1
sVraspberryke0c-20
p164
I6
sVbtram-20
p165
I1
sVnextagusmp0378177-20
p166
I1
sVu4e0VoRSEeO0q866uOKJ7Q0_Sm8w3_0_0_0
p167
I1
sVthewire06-20
p168
I12
sVsquid1276153-20
p169
I4
sVcoal02-20
p170
I3
sVedgeorg-20
p171
I1
sVpickncash-20
p172
I1
sVdealtmp950967-20
p173
I1
sVworldtrave07c-20
p174
I1
sVdealtmp649281-20
p175
I1
sVskim0x832-20
p176
I1
sV9aSH3n1lEeO0pdpHTkpJrQOOj8_GvJv3_CJR_0_0
p177
I1
sVpinpin-20
p178
I1
sVindianramp-20
p179
I5
sVcamelbrowser-20
p180
I1
sVggplot2-20
p181
I2
sVrRWV4H1uEeOYjpLRDiclhQ0_kjHv3_0_0_0
p182
I1
sVcameltracker-20
p183
I1
sVkidonlgamfrek-20
p184
I1
sV083-20
p185
I1
sVdislsh-20
p186
I1
sVdealt84742-20
p187
I1
sVcepotdotcom-20
p188
I1
sVplp-wtb-20
p189
I1
sVthebump-generic-20
p190
I1
sVUc5qPoY1EeOovupEe-4nkgAI83_E5bs3_IqQ_0_0
p191
I1
sVpgmp-351-97-20
p192
I2
sVnationalcre0d-20
p193
I2
sVmyshoplist-20
p194
I3
sVgrassgro-20
p195
I1
sVcnet_mp-2762-20
p196
I1
sVtCzX_nSjEeOrrFYRb2j7XQ0_0MJu3_c9R_0_0
p197
I1
sVysixp-20
p198
I1
sVthefind0268499-20
p199
I1
sVbesmarmov-20
p200
I1
sVFWccuuyx
p201
I1
sVnextagusmp0403441-20
p202
I1
sVkwikset-20
p203
I1
sVsnazzybuys-20
p204
I7
sVskim0x116933-20
p205
I1
sVwb9sela555-20
p206
I2
sVchecat-20
p207
I5
sVCKBZxoenEeOpSmplVRSqeA0_aDVw3_eXR_0_0
p208
I1
sVgZO2GoS1EeOW3OZWJb0cRAAI83_UOup3_uHQ_0_0
p209
I1
sVthefind0136699-20
p210
I1
sVexp-lore-20
p211
I1
sVintcol-20
p212
I1
sVbrides08-20
p213
I3
sVpgmp-846-97-20
p214
I1
sVsaloncom08-20
p215
I2
sVgawkeramzn-20
p216
I1
sVnpr-5-20
p217
I1
sVreviewedcom03-20
p218
I1
sVevermave-20
p219
I1
sVdealtmp649258-20
p220
I2
sVdealtmp71208-20
p221
I1
sVdiscoudetec01-20
p222
I1
sVjCDtpoU7EeO2bsKe19bShw0_...v3_0_0_0
p223
I1
sVcuri-20
p224
I1
sVkindledispl0f-20
p225
I2
sVpgmptvs-1597-100-20
p226
I1
sVdradisplay-20
p227
I40
sVssb05-20
p228
I1
sVmuevala-20
p229
I7
sVcpubenchmark-20
p230
I2
sVimww-20
p231
I1
sVpg-1584-100-20
p232
I1
sVpcpapi-20
p233
I15
sVthougcatal0c-20
p234
I6
sVnofilmschool-20
p235
I1
sVmagicianbox-20
p236
I1
sVwhaispla400-20
p237
I1
sVdesignmagazi-20
p238
I2
sVprinteron-20
p239
I2
sVwangifide-20
p240
I1
sVhotogeriofhen-20
p241
I1
sVs-car-20
p242
I1
sVnextagus0065289-20
p243
I1
sVskim0x70967-20
p244
I3
sVwarrender-20
p245
I3
sVdealtmp66709-20
p246
I1
sVonstartups-20
p247
I1
sVstorebuyx-20
p248
I1
sVecub-20
p249
I2
sVskim0x117883-20
p250
I1
sVdealt243896-20
p251
I1
sVU66lIIiEEeOI0tpxbuniXw0_cGew3_QZR_0_0
p252
I1
sVhuaren10-20
p253
I9
sVdealtmp3872-20
p254
I1
sVbraipick-20
p255
I6
sVdrupga0a-20
p256
I5
sVdidilocaeaher-20
p257
I2
sVdd0c8-20
p258
I5
sVtedsbar-20
p259
I1
sVoj1wzn0uEeOd_KqYBQC5_g0_iTKv3_WJR_0_0
p260
I1
sVpixmatrix1641-20
p261
I1
sVsphe-bluejasmine-rotten-20
p262
I1
sVlabmin-20
p263
I1
sVrussellrhodes-20
p264
I2
sVnerdgsm-20
p265
I2
sVnextagusmp0425949-20
p266
I1
sVsmarturl-20
p267
I4
sVpgmp-1129-97-20
p268
I1
sVnbkcapital-20
p269
I1
sVyZtZ5n6SEeOXw5LRDiclhQ0_Y02u3_0_0_0
p270
I1
sVgiftscom07-20
p271
I1
sVdeadspinamzn-20
p272
I1
sVdrozfans-20
p273
I2
sVhempwallet-20
p274
I1
sVminkidgamleag-20
p275
I1
sVtherapistny-20
p276
I1
sV89fi0oaVEeOT0qpvWyHjRQigO7_Y8Ow3_0_0_0
p277
I1
sVvglnkc4262-20
p278
I8
sVvglnk-c930-20
p279
I1
sVdealtmp649294-20
p280
I1
sVslatmaga-20
p281
I5
sVdealtmp941410-20
p282
I1
sVwashpost-opinions-20
p283
I1
sVravelry-20
p284
I1
sVdealt3799-20
p285
I1
sVnextagus0002423-20
p286
I1
sVUrVXLoYvEeOp306y76QahA0_YQfv3_0_0_0
p287
I1
sVreayoufitgoa-20
p288
I1
sVdealt461300-20
p289
I1
sVmalwacookb-20
p290
I1
sVviealotheway-20
p291
I1
sVwebweavprod-20
p292
I1
sVongBNHbgEeO6I2plVRSqeA0_y0bu3_0_0_0
p293
I1
sVYm-0WH7REeOAS-ZWJb0cRA0_q2Xv3_0_0_0
p294
I1
sVwwwshopstylec-20
p295
I26
sVvglnkc3623-20
p296
I1
sVsinetw
p297
I1
sVdianerehm-20
p298
I1
sVthefind0262593-20
p299
I1
sVJSCBKoVKEeOMbM621S3TyQ0_E8Hw3_gUR_0_0
p300
I1
sVandroidpolice-20
p301
I2
sVcnet-office-20
p302
I3
sVeggwhitescate-20
p303
I2
sVhymsabk-20
p304
I50
sVswisscubancig-20
p305
I4
sVio9amzn-20
p306
I5
sVfrdrupgabamao-20
p307
I1
sVvalorebcom-20
p308
I3
sVabs-bookcompareapi-20
p309
I5
sVbloggsoftw06-20
p310
I4
sVplexforyou-20
p311
I1
sVdealtmp649285-20
p312
I1
sVskim0x106788-20
p313
I1
sVrelprods-20
p314
I2
sV6j9qroj5EeOg_PLLArRDVQ0_iSgw3_kZR_0_0
p315
I1
sVhcpromo-20
p316
I1
sVhubpages075-20
p317
I1
sVnextagusmp0358977-20
p318
I1
sVcamelalerts-20
p319
I17
sVH3UDKH4jEeOQ1CZyJe4kMg0_EVQv3_0_0_0
p320
I1
sVzehrcenter-20
p321
I4
sVdealtmp649293-20
p322
I1
sVmRZxHH0pEeO6kuZWJb0cRA0_ePqu3_0_0_0
p323
I1
sVwikiforu-20
p324
I1
sVnextagusmp0356807-20
p325
I1
sVhsmmjonFEeO1cP70KdAAXg0_io.p3_0_0_0
p326
I1
sVthemadposblom-20
p327
I1
sVtureis-20
p328
I1
sVdealtmp941491-20
p329
I1
sVspp-middle-20
p330
I1
sVongaflgaongaf-20
p331
I2
sVsmatheglajeww-20
p332
I1
sV691-20
p333
I2
sVsomschgamonlk-20
p334
I1
sVshizzle0a-20
p335
I1
sVbooksprice-20
p336
I1
sVWzdMVoTFEeOkDJLRDiclhQ0_MN5w3_gSR_0_0
p337
I1
sVorangette-20
p338
I2
sVcrrow1-20
p339
I12
sVeverydc-20
p340
I2
sVhongkiatcom-20
p341
I1
sVnextagusmp0382435-20
p342
I1
sVbodywraps01-20
p343
I1
sVcnet-pc-20
p344
I4
sVsquid1218787-20
p345
I1
sVdealt529148-20
p346
I1
sVdealtmp3673-20
p347
I1
sVtonymacx86com-20
p348
I2
sVlifescrcom08-20
p349
I1
sVebookstorm0a-20
p350
I2
sVwiialerts-20
p351
I5
sVhollyannaeree-20
p352
I1
sVsmzdm0c01-20
p353
I15
sVcdun09-20
p354
I1
sVLYy-iokgEeOfYpZoQkmVTwRo72_gyew3_0_0_0
p355
I1
sVcamelproducts-20
p356
I1
sV09x6-HcCEeObw8Ldl8mYFw0_SYbu3_0_0_0
p357
I1
sVtextpricfind-20
p358
I1
sVxennbiz-20
p359
I1
sVfrp-tower-20
p360
I1
sVfilemount-20
p361
I1
sVohmy0c-20
p362
I3
sV_FdiPocDEeO1ner7UEsVTAimN5_QTPu3_0_0_0
p363
I1
sVrekordklubsaxoni
p364
I1
sVredditlink-20
p365
I1
sVheadfiorg-thr-mcb-lo-f-d-20
p366
I1
sVNOuBkoe-EeOghaqYBQC5_g0_aCUw3_0_0_0
p367
I1
sVsmilecenterny-20
p368
I3
sVhypable-20
p369
I1
sVnextagusmp0373953-20
p370
I1
sVapartmentth0a-20
p371
I9
sVdc0iKH1WEeOH8D6StX-0HgRo72_aH1v3_0_0_0
p372
I1
sVttr_blu_ray_player-20
p373
I1
sVpgmptvs-1038-01-20
p374
I1
sVcritworl-20
p375
I1
sVgebfree-20
p376
I1
sVimoreb-20
p377
I1
sVdealt529139-20
p378
I1
sVpsychologytod-20
p379
I1
sVgizmodoamzn-20
p380
I21
sVSd74QIYfEeOJd8r2W9izewc-F8_q7ev3_0_0_0
p381
I1
sVJDDQTISxEeO9CPahFGxSkgAI83_e42w3_0_0_0
p382
I1
sVZSAm8H65EeOC2prU65tFxwRo72_enWv3_0_0_0
p383
I1
sVdealtmp941529-20
p384
I1
sVjaaY2n1VEeO5PmplVRSqeARo72_mzLv3_0_0_0
p385
I1
sVvideogamesacc-20
p386
I1
sVshopzilla0d-20
p387
I2
sVsquid812689-20
p388
I1
sVgladysak-20
p389
I1
sVpastebl-20
p390
I1
sV42QBKIeLEeOVO3pkOaeOxQ0_CGVw3_0_0_0
p391
I1
sV14606-20
p392
I11
sVI4aUFH-yEeOi19pxbuniXw0_CbQv3_0_0_0
p393
I1
sVplp-tower-20
p394
I3
sVvglnkc3416-20
p395
I1
sVdoimg-20
p396
I1
sVl0e7c-20
p397
I2
sVlevensonsmile-20
p398
I1
sVNmnJEIjrEeOy4MKe19bShw0_iSgw3_kZR_0_0
p399
I1
sVnewbooinhis-20
p400
I1
sVCSSF-20
p401
I1
sVdemenshea543-20
p402
I1
sVgtzso-20
p403
I3
sVnew_psychology-20
p404
I1
sViinterinfid-20
p405
I1
sVoOyEEnlGEeO-dVqSJV8TTg0_qjtu3_uER_0_0
p406
I1
sVYenxrHevEeOye7okrvv5MAIbjB_iAWu3_aBR_0_0
p407
I1
sVserieats-20
p408
I1
sVhydrusspmabk-20
p409
I1
sV5336653604-20
p410
I2
sVCi7BeIkzEeOQyKb68wo-pA0_MSkw3_0_0_0
p411
I1
sVhttpwwwblac07-20
p412
I1
sVbargainwebm00-20
p413
I1
sVbp09b-20
p414
I2
sVdealtmp649310-20
p415
I1
sVdealmoon-20
p416
I38
sVskim0x28841-20
p417
I1
sVF4rv7oIdEeOISObHJGciMAigO7_0_0_0_0
p418
I1
sVvglnkc8402-20
p419
I1
sVb8OfAnfTEeOjURIP6jmopg0_mW9u3_0_0_0
p420
I1
sVsnapsort-700-20
p421
I1
sVthefind0125055-20
p422
I1
sVdealzon-20
p423
I3
sVbmyp-20
p424
I2
sVejuciemaker-20
p425
I3
sVrwoassociates-20
p426
I3
sVplugabltechno-20
p427
I1
sVmymdjo-20
p428
I1
sVpgtvs-586-100-20
p429
I1
sVphdecon-20
p430
I1
sVskim0x79082-20
p431
I1
sVwwwlifelongpr-20
p432
I1
sVcurvedcom-20
p433
I1
sVdealtmp626052-20
p434
I1
sVpgtvs-441-37-20
p435
I1
sVkindaxq42013-2-20
p436
I2
sVpgmp-645-97-20
p437
I1
sVthefind0154195-20
p438
I1
sVskim0x54745-20
p439
I1
sVnewhotelus-20
p440
I3
sVpcm_buyitnow-20
p441
I2
sVtjhsst-20
p442
I1
sVyugipricandva-20
p443
I7
sVpgmp-46-100-20
p444
I1
sVsnapsort-472-20
p445
I1
sVthesweethome-20
p446
I2
sVpageaday.com-20
p447
I1
sV1sale06-20
p448
I1
sVUYPjdIhgEeO_dS4yW5Zg0gRo72_Uc8w3_0_0_0
p449
I1
sVnextagusmp0400445-20
p450
I1
sVcarboncostume-20
p451
I1
sVtrtipoff-20
p452
I1
sVdealswoot-20
p453
I5
sVget069-20
p454
I1
sVsr-flyout-20
p455
I1
sVkojo-20
p456
I1
sVdealtime-ce-feed-20
p457
I1
sVcare01-20
p458
I1
sVbooktest-20
p459
I2
sVspp-sdc-top-20
p460
I1
sVcoolegadge-20
p461
I1
sVJOTjenxkEeOAXxIP6jmopg0_CHCv3_0_0_0
p462
I1
sVthefind0292215-20
p463
I1
sV047-20
p464
I6
sVourelecreview-20
p465
I1
sVvglnk-c2103-20
p466
I1
sVkIkuRohyEeOS7UrXN51jsQ0_cGew3_QZR_0_0
p467
I1
sVs8c4AogoEeOKucp1Gj0HaQ0_GAUw3_0_0_0
p468
I1
sVtotabeau09-20
p469
I3
sVpgmp-88-100-20
p470
I1
sVdealtmp649282-20
p471
I1
sVtheskisys-20
p472
I1
sVnextagusmp0378141-20
p473
I1
sVzazzle0b-20
p474
I4
sVtechs096-20
p475
I1
sV111417414rg4310-20
p476
I3
sVdealt745383-20
p477
I1
sVsnapsort-715-20
p478
I1
sVlifehackeramzn-20
p479
I8
sVstackoverfl08-20
p480
I9
sV100dayofreafo-20
p481
I1
sVbuzz0f-20
p482
I10
sVdealt428791-20
p483
I1
sVdealtmp3878-20
p484
I1
sVlabnol-20
p485
I2
sVhcyoutube-20
p486
I1
sVnextagusmp0351031-20
p487
I1
sVviglink129408-20
p488
I1
sVat88-20
p489
I1
sV059-20
p490
I4
sVwellwishersdi-20
p491
I1
sVprice1304-20
p492
I1
sVvglnk-c423-20
p493
I1
sVdrummerworld-20
p494
I1
sVcnet_mp-1001-20
p495
I1
sVviglink124368-20
p496
I1
sVFyuann1PEeOsTj6StX-0HgRo72_SAIv3_0_0_0
p497
I1
sVhardfocom-20
p498
I2
sVover01-1327-0001-20
p499
I1
sVusacarry-20
p500
I1
sVpg-824-86-20
p501
I1
sVbooknpdf-us-20
p502
I1
sV1vkIBHbWEeOezDoMloNEXAIbjB_Wlau3_0CR_0_0
p503
I1
sVthedailybeast-autotag-20
p504
I1
sVablegamers-20
p505
I8
sV-thZEIeSEeO1QEYgESSkWg0_CGVw3_0_0_0
p506
I1
sVthefind0210203-20
p507
I1
sVazop-20
p508
I1
sVskim1x121869-20
p509
I1
s.